; Function Attrs: mustprogress uwtable
define hidden noundef i64 @_ZNK4cvc58internal33CardinalityConstraintHashFunctionclERKNS0_21CardinalityConstraintE(ptr noundef nonnull readnone align 1 captures(none) dereferenceable(1) %0, ptr noundef nonnull align 8 dereferenceable(24) %1) local_unnamed_addr #3 align 2 {
  %3 = alloca %"struct.std::hash", align 1
  call void @llvm.lifetime.start.p0(i64 1, ptr nonnull %3) #16
  %4 = load ptr, ptr %1, align 8, !tbaa !11
  %5 = call noundef i64 @_ZNKSt4hashIN4cvc58internal8TypeNodeEEclERKS2_(ptr noundef nonnull align 1 dereferenceable(1) %3, ptr noundef nonnull align 8 dereferenceable(8) %4)
  %6 = getelementptr inbounds nuw i8, ptr %1, i64 8
  %7 = call noundef i64 @_ZNK4cvc58internal7Integer4hashEv(ptr noundef nonnull align 8 dereferenceable(16) %6)
  %8 = mul i64 %7, %5
  call void @llvm.lifetime.end.p0(i64 1, ptr nonnull %3) #16
  ret i64 %8
}